; Function Attrs: nofree norecurse nosync nounwind memory(none) uwtable
define hidden i64 @maxOR(i64 noundef %0, i64 noundef %1, i64 noundef %2, i64 noundef %3) local_unnamed_addr #5 {
  %5 = and i64 %3, %1
  br label %6

6:                                                ; preds = %4, %15
  %.026 = phi i64 [ -9223372036854775808, %4 ], [ %16, %15 ]
  %7 = and i64 %5, %.026
  %.not23 = icmp eq i64 %7, 0
  br i1 %.not23, label %15, label %8

8:                                                ; preds = %6
  %9 = sub i64 %1, %.026
  %10 = add i64 %.026, -1
  %11 = or i64 %9, %10
  %.not24 = icmp ult i64 %11, %0
  br i1 %.not24, label %12, label %17

12:                                               ; preds = %8
  %13 = sub i64 %3, %.026
  %14 = or i64 %13, %10
  %.not25 = icmp ult i64 %14, %2
  br i1 %.not25, label %15, label %17

15:                                               ; preds = %12, %6
  %16 = lshr i64 %.026, 1
  %.not = icmp ult i64 %.026, 2
  br i1 %.not, label %17, label %6

17:                                               ; preds = %12, %8, %15
  %.020 = phi i64 [ %1, %15 ], [ %11, %8 ], [ %1, %12 ]
  %.019 = phi i64 [ %3, %15 ], [ %3, %8 ], [ %14, %12 ]
  %18 = or i64 %.019, %.020
  ret i64 %18
}